target datalayout = "e-m:e-p270:32:32-p271:32:32-p272:64:64-i64:64-i128:128-f80:128-n8:16:32:64-S128"
target triple = "x86_64-pc-linux-gnu"

%struct.diff_options = type { ptr, ptr, i32, i32, ptr, i32, ptr, i64, i64, ptr, ptr, ptr, ptr, %struct.diff_flags, i32, i32, i32, i32, i32, i32, i32, i32, i32, i32, i32, i32, i32, i32, i32, i32, i32, i32, i32, i32, i32, i32, ptr, i32, ptr, i32, i32, ptr, i64, i64, i32, i32, i32, i32, ptr, i32, i32, ptr, i32, i32, ptr, ptr, i32, [3 x i8], %struct.pathspec, ptr, ptr, ptr, ptr, ptr, ptr, ptr, ptr, i32, ptr, i32, i32, ptr, ptr, i32 }
%struct.diff_flags = type { i32, i32, i32, i32, i32, i32, i32, i32, i32, i32, i32, i32, i32, i32, i32, i32, i32, i32, i32, i32, i32, i32, i32, i32, i32, i32, i32, i32, i32, i32, i32, i32, i32, i32, i32 }
%struct.pathspec = type { i32, i8, i32, i32, ptr }
%struct.option = type { i32, i32, ptr, ptr, ptr, ptr, i32, ptr, i64, ptr, i64, ptr }

@.str.256 = private unnamed_addr constant [7 x i8] c"diff.c\00", align 1
@.str.331 = private unnamed_addr constant [41 x i8] c"option callback does not expect negation\00", align 1
@.str.338 = private unnamed_addr constant [44 x i8] c"option callback does not expect an argument\00", align 1

; Function Attrs: nounwind uwtable
define internal void @enable_patch_output(ptr noundef %0) #0 {
  %2 = alloca ptr, align 8
  store ptr %0, ptr %2, align 8, !tbaa !239
  %3 = load ptr, ptr %2, align 8, !tbaa !239
  %4 = load i32, ptr %3, align 4, !tbaa !16
  %5 = and i32 %4, -2049
  store i32 %5, ptr %3, align 4, !tbaa !16
  %6 = load ptr, ptr %2, align 8, !tbaa !239
  %7 = load i32, ptr %6, align 4, !tbaa !16
  %8 = or i32 %7, 16
  store i32 %8, ptr %6, align 4, !tbaa !16
  ret void
}

; Function Attrs: nounwind uwtable
define internal i32 @diff_opt_binary(ptr noundef %0, ptr noundef %1, i32 noundef %2) #0 {
  %4 = alloca ptr, align 8
  %5 = alloca ptr, align 8
  %6 = alloca i32, align 4
  %7 = alloca ptr, align 8
  store ptr %0, ptr %4, align 8, !tbaa !217
  store ptr %1, ptr %5, align 8, !tbaa !9
  store i32 %2, ptr %6, align 4, !tbaa !16
  call void @llvm.lifetime.start.p0(i64 8, ptr %7) #10
  %8 = load ptr, ptr %4, align 8, !tbaa !217
  %9 = getelementptr inbounds nuw %struct.option, ptr %8, i32 0, i32 3
  %10 = load ptr, ptr %9, align 8, !tbaa !224
  store ptr %10, ptr %7, align 8, !tbaa !34
  br label %11

11:                                               ; preds = %3
  %12 = load i32, ptr %6, align 4, !tbaa !16
  %13 = icmp ne i32 %12, 0
  br i1 %13, label %14, label %15

14:                                               ; preds = %11
  call void (ptr, i32, ptr, ...) @BUG_fl(ptr noundef @.str.256, i32 noundef 5171, ptr noundef @.str.331) #12
  unreachable

15:                                               ; preds = %11
  br label %16

16:                                               ; preds = %15
  br label %17

17:                                               ; preds = %16
  br label %18

18:                                               ; preds = %17
  %19 = load ptr, ptr %5, align 8, !tbaa !9
  %20 = icmp ne ptr %19, null
  br i1 %20, label %21, label %22

21:                                               ; preds = %18
  call void (ptr, i32, ptr, ...) @BUG_fl(ptr noundef @.str.256, i32 noundef 5172, ptr noundef @.str.338) #12
  unreachable

22:                                               ; preds = %18
  br label %23

23:                                               ; preds = %22
  br label %24

24:                                               ; preds = %23
  %25 = load ptr, ptr %7, align 8, !tbaa !34
  %26 = getelementptr inbounds nuw %struct.diff_options, ptr %25, i32 0, i32 24
  call void @enable_patch_output(ptr noundef %26)
  %27 = load ptr, ptr %7, align 8, !tbaa !34
  %28 = getelementptr inbounds nuw %struct.diff_options, ptr %27, i32 0, i32 13
  %29 = getelementptr inbounds nuw %struct.diff_flags, ptr %28, i32 0, i32 2
  store i32 1, ptr %29, align 8, !tbaa !237
  call void @llvm.lifetime.end.p0(i64 8, ptr %7) #10
  ret i32 0
}