; Function Attrs: nounwind uwtable
define internal noundef i32 @diff_opt_binary(ptr noundef readonly captures(none) %0, ptr noundef readnone %1, i32 noundef %2) #0 {
  %4 = getelementptr inbounds nuw i8, ptr %0, i64 16
  %5 = load ptr, ptr %4, align 8, !tbaa !215
  %.not = icmp eq i32 %2, 0
  br i1 %.not, label %7, label %6

6:                                                ; preds = %3
  tail call void (ptr, i32, ptr, ...) @BUG_fl(ptr noundef nonnull @.str.256, i32 noundef 5171, ptr noundef nonnull @.str.331) #34
  unreachable

7:                                                ; preds = %3
  %.not4 = icmp eq ptr %1, null
  br i1 %.not4, label %9, label %8

8:                                                ; preds = %7
  tail call void (ptr, i32, ptr, ...) @BUG_fl(ptr noundef nonnull @.str.256, i32 noundef 5172, ptr noundef nonnull @.str.338) #34
  unreachable

9:                                                ; preds = %7
  %10 = getelementptr inbounds nuw i8, ptr %5, i64 276
  %11 = load i32, ptr %10, align 4, !tbaa !11
  %12 = and i32 %11, -2065
  %13 = or disjoint i32 %12, 16
  store i32 %13, ptr %10, align 4, !tbaa !11
  %14 = getelementptr inbounds nuw i8, ptr %5, i64 104
  store i32 1, ptr %14, align 8, !tbaa !228
  ret i32 0
}